; Function Attrs: mustprogress nounwind uwtable
define noundef ptr @_ZNK7glslang14TAttributeArgs13getConstUnionENS_10TBasicTypeEi(ptr nocapture noundef nonnull readonly align 8 dereferenceable(16) %0, i32 noundef %1, i32 noundef %2) local_unnamed_addr #0 align 2 {
  %4 = getelementptr inbounds i8, ptr %0, i64 8
  %5 = load ptr, ptr %4, align 8
  %6 = icmp eq ptr %5, null
  br i1 %6, label %57, label %7

7:                                                ; preds = %3
  %8 = load ptr, ptr %5, align 8
  %9 = getelementptr inbounds i8, ptr %8, i64 408
  %10 = load ptr, ptr %9, align 8
  %11 = tail call noundef nonnull align 8 dereferenceable(32) ptr %10(ptr noundef nonnull align 8 dereferenceable(364) %5) #11
  %12 = getelementptr inbounds i8, ptr %11, i64 8
  %13 = getelementptr inbounds i8, ptr %11, i64 16
  %14 = load ptr, ptr %13, align 8
  %15 = load ptr, ptr %12, align 8
  %16 = ptrtoint ptr %14 to i64
  %17 = ptrtoint ptr %15 to i64
  %18 = sub i64 %16, %17
  %19 = lshr exact i64 %18, 3
  %20 = trunc i64 %19 to i32
  %.not = icmp sgt i32 %20, %2
  br i1 %.not, label %21, label %57

21:                                               ; preds = %7
  %22 = load ptr, ptr %4, align 8
  %23 = load ptr, ptr %22, align 8
  %24 = getelementptr inbounds i8, ptr %23, i64 408
  %25 = load ptr, ptr %24, align 8
  %26 = tail call noundef nonnull align 8 dereferenceable(32) ptr %25(ptr noundef nonnull align 8 dereferenceable(364) %22) #11
  %27 = sext i32 %2 to i64
  %28 = getelementptr inbounds i8, ptr %26, i64 8
  %29 = load ptr, ptr %28, align 8
  %30 = getelementptr inbounds ptr, ptr %29, i64 %27
  %31 = load ptr, ptr %30, align 8
  %32 = load ptr, ptr %31, align 8
  %33 = getelementptr inbounds i8, ptr %32, i64 40
  %34 = load ptr, ptr %33, align 8
  %35 = tail call noundef ptr %34(ptr noundef nonnull align 8 dereferenceable(32) %31) #11
  %36 = icmp eq ptr %35, null
  br i1 %36, label %57, label %37

37:                                               ; preds = %21
  %38 = load ptr, ptr %4, align 8
  %39 = load ptr, ptr %38, align 8
  %40 = getelementptr inbounds i8, ptr %39, i64 408
  %41 = load ptr, ptr %40, align 8
  %42 = tail call noundef nonnull align 8 dereferenceable(32) ptr %41(ptr noundef nonnull align 8 dereferenceable(364) %38) #11
  %43 = getelementptr inbounds i8, ptr %42, i64 8
  %44 = load ptr, ptr %43, align 8
  %45 = getelementptr inbounds ptr, ptr %44, i64 %27
  %46 = load ptr, ptr %45, align 8
  %47 = load ptr, ptr %46, align 8
  %48 = getelementptr inbounds i8, ptr %47, i64 40
  %49 = load ptr, ptr %48, align 8
  %50 = tail call noundef ptr %49(ptr noundef nonnull align 8 dereferenceable(32) %46) #11
  %51 = getelementptr inbounds i8, ptr %50, i64 192
  %52 = load ptr, ptr %51, align 8
  %53 = getelementptr inbounds i8, ptr %52, i64 8
  %54 = load ptr, ptr %53, align 8
  %55 = getelementptr inbounds i8, ptr %54, i64 8
  %56 = load i32, ptr %55, align 8
  %.not10 = icmp eq i32 %56, %1
  %spec.select = select i1 %.not10, ptr %54, ptr null
  br label %57

57:                                               ; preds = %37, %21, %7, %3
  %.0 = phi ptr [ null, %3 ], [ null, %7 ], [ null, %21 ], [ %spec.select, %37 ]
  ret ptr %.0
}